target datalayout = "e-m:e-p270:32:32-p271:32:32-p272:64:64-i64:64-i128:128-f80:128-n8:16:32:64-S128"
target triple = "x86_64-pc-linux-gnu"

%struct._object = type { %union.anon, ptr }
%union.anon = type { i64 }
%struct.ctypes_state = type { ptr, ptr, ptr, ptr, ptr, ptr, ptr, ptr, ptr, ptr, ptr, ptr, ptr, ptr, ptr, ptr, ptr, ptr, ptr, ptr, ptr, ptr, ptr, ptr, ptr }
%struct.tagPyCArgObject = type { %struct._object, ptr, i8, %union.anon.0, ptr, i64 }
%union.anon.0 = type { x86_fp80 }

; Function Attrs: nounwind uwtable
define hidden ptr @PyCArgObject_new(ptr noundef %0) #0 {
  %2 = alloca ptr, align 8
  %3 = alloca ptr, align 8
  %4 = alloca ptr, align 8
  %5 = alloca i32, align 4
  store ptr %0, ptr %3, align 8, !tbaa !3
  call void @llvm.lifetime.start.p0(i64 8, ptr %4) #10
  %6 = load ptr, ptr %3, align 8, !tbaa !3
  %7 = getelementptr inbounds nuw %struct.ctypes_state, ptr %6, i32 0, i32 1
  %8 = load ptr, ptr %7, align 8, !tbaa !17
  %9 = call ptr @_PyObject_GC_New(ptr noundef %8)
  store ptr %9, ptr %4, align 8, !tbaa !18
  %10 = load ptr, ptr %4, align 8, !tbaa !18
  %11 = icmp eq ptr %10, null
  br i1 %11, label %12, label %13

12:                                               ; preds = %1
  store ptr null, ptr %2, align 8
  store i32 1, ptr %5, align 4
  br label %24

13:                                               ; preds = %1
  %14 = load ptr, ptr %4, align 8, !tbaa !18
  %15 = getelementptr inbounds nuw %struct.tagPyCArgObject, ptr %14, i32 0, i32 1
  store ptr null, ptr %15, align 16, !tbaa !20
  %16 = load ptr, ptr %4, align 8, !tbaa !18
  %17 = getelementptr inbounds nuw %struct.tagPyCArgObject, ptr %16, i32 0, i32 2
  store i8 0, ptr %17, align 8, !tbaa !25
  %18 = load ptr, ptr %4, align 8, !tbaa !18
  %19 = getelementptr inbounds nuw %struct.tagPyCArgObject, ptr %18, i32 0, i32 4
  store ptr null, ptr %19, align 16, !tbaa !26
  %20 = load ptr, ptr %4, align 8, !tbaa !18
  %21 = getelementptr inbounds nuw %struct.tagPyCArgObject, ptr %20, i32 0, i32 3
  call void @llvm.memset.p0.i64(ptr align 16 %21, i8 0, i64 16, i1 false)
  %22 = load ptr, ptr %4, align 8, !tbaa !18
  call void @PyObject_GC_Track(ptr noundef %22)
  %23 = load ptr, ptr %4, align 8, !tbaa !18
  store ptr %23, ptr %2, align 8
  store i32 1, ptr %5, align 4
  br label %24

24:                                               ; preds = %13, %12
  call void @llvm.lifetime.end.p0(i64 8, ptr %4) #10
  %25 = load ptr, ptr %2, align 8
  ret ptr %25
}