; Function Attrs: nounwind uwtable
define hidden ptr @PyCArgObject_new(ptr noundef readonly captures(none) %0) local_unnamed_addr #0 {
  %2 = getelementptr inbounds nuw i8, ptr %0, i64 8
  %3 = load ptr, ptr %2, align 8, !tbaa !14
  %4 = tail call ptr @_PyObject_GC_New(ptr noundef %3) #10
  %5 = icmp eq ptr %4, null
  br i1 %5, label %10, label %6

6:                                                ; preds = %1
  %7 = getelementptr inbounds nuw i8, ptr %4, i64 16
  store ptr null, ptr %7, align 16, !tbaa !15
  %8 = getelementptr inbounds nuw i8, ptr %4, i64 24
  store i8 0, ptr %8, align 8, !tbaa !20
  %9 = getelementptr inbounds nuw i8, ptr %4, i64 32
  tail call void @llvm.memset.p0.i64(ptr noundef nonnull align 16 dereferenceable(24) %9, i8 0, i64 24, i1 false)
  tail call void @PyObject_GC_Track(ptr noundef nonnull %4) #10
  br label %10

10:                                               ; preds = %1, %6
  ret ptr %4
}